target datalayout = "e-m:e-p270:32:32-p271:32:32-p272:64:64-i64:64-i128:128-f80:128-n8:16:32:64-S128"
target triple = "x86_64-unknown-linux-gnu"

%"class.dd::solver" = type { ptr, ptr, ptr, %"class.dd::solver::stats", %"struct.dd::solver::config", %"class.std::function", %class.ptr_vector, %class.ptr_vector, %class.ptr_vector, %class.vector.0, %class.ptr_vector, ptr, i8, i32, %class.svector, %class.svector }
%"class.dd::solver::stats" = type <{ i32, [4 x i8], double, i32, i32, i32, [4 x i8] }>
%"struct.dd::solver::config" = type { i32, i32, i32, i32, i32, i32, i8, i32, i32, i32, i32 }
%"class.std::function" = type { %"class.std::_Function_base", ptr }
%"class.std::_Function_base" = type { %"union.std::_Any_data", ptr }
%"union.std::_Any_data" = type { %"union.std::_Nocopy_types" }
%"union.std::_Nocopy_types" = type { { i64, i64 } }
%class.vector.0 = type { ptr }
%class.ptr_vector = type { %class.vector }
%class.vector = type { ptr }
%class.svector = type { %class.vector.1 }
%class.vector.1 = type { ptr }
%"class.dd::solver::equation" = type { i32, i32, %"class.dd::pdd", ptr }
%"class.dd::pdd" = type { i32, ptr }
%"struct.dd::solver::scoped_process" = type { ptr, ptr }

@.str.7 = private unnamed_addr constant [115 x i8] c"generated/home/dtcxzyw/WorkSpace/Projects/compilers/llvm-opt-benchmark/bench/z3/z3/src/math/grobner/pdd_solver.cpp\00", align 1
@.str.10 = private unnamed_addr constant [29 x i8] c"UNEXPECTED CODE WAS REACHED.\00", align 1

; Function Attrs: mustprogress nounwind uwtable
define linkonce_odr hidden noundef i32 @_ZNK2dd6solver8equation5stateEv(ptr noundef nonnull align 8 dereferenceable(32) %this) #5 comdat align 2 {
entry:
  %this.addr = alloca ptr, align 8
  store ptr %this, ptr %this.addr, align 8
  %this1 = load ptr, ptr %this.addr, align 8
  %m_state = getelementptr inbounds %"class.dd::solver::equation", ptr %this1, i32 0, i32 0
  %0 = load i32, ptr %m_state, align 8
  ret i32 %0
}

; Function Attrs: mustprogress uwtable
define linkonce_odr hidden noundef nonnull align 8 dereferenceable(8) ptr @_ZN6vectorIPN2dd6solver8equationELb0EjE9push_backEOS3_(ptr noundef nonnull align 8 dereferenceable(8) %this, ptr noundef nonnull align 8 dereferenceable(8) %elem) #4 comdat align 2 {
entry:
  %this.addr = alloca ptr, align 8
  %elem.addr = alloca ptr, align 8
  store ptr %this, ptr %this.addr, align 8
  store ptr %elem, ptr %elem.addr, align 8
  %this1 = load ptr, ptr %this.addr, align 8
  %m_data = getelementptr inbounds %class.vector, ptr %this1, i32 0, i32 0
  %0 = load ptr, ptr %m_data, align 8
  %cmp = icmp eq ptr %0, null
  br i1 %cmp, label %if.then, label %lor.lhs.false

lor.lhs.false:                                    ; preds = %entry
  %m_data2 = getelementptr inbounds %class.vector, ptr %this1, i32 0, i32 0
  %1 = load ptr, ptr %m_data2, align 8
  %arrayidx = getelementptr inbounds i32, ptr %1, i64 -1
  %2 = load i32, ptr %arrayidx, align 4
  %m_data3 = getelementptr inbounds %class.vector, ptr %this1, i32 0, i32 0
  %3 = load ptr, ptr %m_data3, align 8
  %arrayidx4 = getelementptr inbounds i32, ptr %3, i64 -2
  %4 = load i32, ptr %arrayidx4, align 4
  %cmp5 = icmp eq i32 %2, %4
  br i1 %cmp5, label %if.then, label %if.end

if.then:                                          ; preds = %lor.lhs.false, %entry
  call void @_ZN6vectorIPN2dd6solver8equationELb0EjE13expand_vectorEv(ptr noundef nonnull align 8 dereferenceable(8) %this1)
  br label %if.end

if.end:                                           ; preds = %if.then, %lor.lhs.false
  %m_data6 = getelementptr inbounds %class.vector, ptr %this1, i32 0, i32 0
  %5 = load ptr, ptr %m_data6, align 8
  %m_data7 = getelementptr inbounds %class.vector, ptr %this1, i32 0, i32 0
  %6 = load ptr, ptr %m_data7, align 8
  %arrayidx8 = getelementptr inbounds i32, ptr %6, i64 -1
  %7 = load i32, ptr %arrayidx8, align 4
  %idx.ext = zext i32 %7 to i64
  %add.ptr = getelementptr inbounds ptr, ptr %5, i64 %idx.ext
  %8 = load ptr, ptr %elem.addr, align 8
  %9 = load ptr, ptr %8, align 8
  store ptr %9, ptr %add.ptr, align 8
  %m_data9 = getelementptr inbounds %class.vector, ptr %this1, i32 0, i32 0
  %10 = load ptr, ptr %m_data9, align 8
  %arrayidx10 = getelementptr inbounds i32, ptr %10, i64 -1
  %11 = load i32, ptr %arrayidx10, align 4
  %inc = add i32 %11, 1
  store i32 %inc, ptr %arrayidx10, align 4
  ret ptr %this1
}

; Function Attrs: mustprogress nounwind uwtable
define linkonce_odr hidden void @_ZN2dd6solver8equation9set_indexEj(ptr noundef nonnull align 8 dereferenceable(32) %this, i32 noundef %idx) #5 comdat align 2 {
entry:
  %this.addr = alloca ptr, align 8
  %idx.addr = alloca i32, align 4
  store ptr %this, ptr %this.addr, align 8
  store i32 %idx, ptr %idx.addr, align 4
  %this1 = load ptr, ptr %this.addr, align 8
  %0 = load i32, ptr %idx.addr, align 4
  %m_idx = getelementptr inbounds %"class.dd::solver::equation", ptr %this1, i32 0, i32 1
  store i32 %0, ptr %m_idx, align 4
  ret void
}

; Function Attrs: mustprogress nounwind uwtable
define linkonce_odr hidden noundef i32 @_ZNK6vectorIPN2dd6solver8equationELb0EjE4sizeEv(ptr noundef nonnull align 8 dereferenceable(8) %this) #5 comdat align 2 {
entry:
  %retval = alloca i32, align 4
  %this.addr = alloca ptr, align 8
  store ptr %this, ptr %this.addr, align 8
  %this1 = load ptr, ptr %this.addr, align 8
  %m_data = getelementptr inbounds %class.vector, ptr %this1, i32 0, i32 0
  %0 = load ptr, ptr %m_data, align 8
  %cmp = icmp eq ptr %0, null
  br i1 %cmp, label %if.then, label %if.end

if.then:                                          ; preds = %entry
  store i32 0, ptr %retval, align 4
  br label %return

if.end:                                           ; preds = %entry
  %m_data2 = getelementptr inbounds %class.vector, ptr %this1, i32 0, i32 0
  %1 = load ptr, ptr %m_data2, align 8
  %arrayidx = getelementptr inbounds i32, ptr %1, i64 -1
  %2 = load i32, ptr %arrayidx, align 4
  store i32 %2, ptr %retval, align 4
  br label %return

return:                                           ; preds = %if.end, %if.then
  %3 = load i32, ptr %retval, align 4
  ret i32 %3
}

; Function Attrs: mustprogress uwtable
define hidden noundef nonnull align 8 dereferenceable(8) ptr @_ZN2dd6solver9get_queueERKNS0_8equationE(ptr noundef nonnull align 8 dereferenceable(208) %this, ptr noundef nonnull align 8 dereferenceable(32) %eq) #4 align 2 {
entry:
  %retval = alloca ptr, align 8
  %this.addr = alloca ptr, align 8
  %eq.addr = alloca ptr, align 8
  store ptr %this, ptr %this.addr, align 8
  store ptr %eq, ptr %eq.addr, align 8
  %this1 = load ptr, ptr %this.addr, align 8
  %0 = load ptr, ptr %eq.addr, align 8
  %call = call noundef i32 @_ZNK2dd6solver8equation5stateEv(ptr noundef nonnull align 8 dereferenceable(32) %0)
  switch i32 %call, label %sw.epilog [
    i32 1, label %sw.bb
    i32 2, label %sw.bb2
    i32 0, label %sw.bb3
  ]

sw.bb:                                            ; preds = %entry
  %m_processed = getelementptr inbounds %"class.dd::solver", ptr %this1, i32 0, i32 7
  store ptr %m_processed, ptr %retval, align 8
  br label %return

sw.bb2:                                           ; preds = %entry
  %m_to_simplify = getelementptr inbounds %"class.dd::solver", ptr %this1, i32 0, i32 8
  store ptr %m_to_simplify, ptr %retval, align 8
  br label %return

sw.bb3:                                           ; preds = %entry
  %m_solved = getelementptr inbounds %"class.dd::solver", ptr %this1, i32 0, i32 6
  store ptr %m_solved, ptr %retval, align 8
  br label %return

sw.epilog:                                        ; preds = %entry
  call void @_Z26notify_assertion_violationPKciS0_(ptr noundef @.str.7, i32 noundef 433, ptr noundef @.str.10)
  call void @exit(i32 noundef 114) #17
  unreachable

return:                                           ; preds = %sw.bb3, %sw.bb2, %sw.bb
  %1 = load ptr, ptr %retval, align 8
  ret ptr %1
}

; Function Attrs: mustprogress nounwind uwtable
define linkonce_odr hidden void @_ZN2dd6solver8equation9set_stateENS0_8eq_stateE(ptr noundef nonnull align 8 dereferenceable(32) %this, i32 noundef %st) #5 comdat align 2 {
entry:
  %this.addr = alloca ptr, align 8
  %st.addr = alloca i32, align 4
  store ptr %this, ptr %this.addr, align 8
  store i32 %st, ptr %st.addr, align 4
  %this1 = load ptr, ptr %this.addr, align 8
  %0 = load i32, ptr %st.addr, align 4
  %m_state = getelementptr inbounds %"class.dd::solver::equation", ptr %this1, i32 0, i32 0
  store i32 %0, ptr %m_state, align 8
  ret void
}

; Function Attrs: mustprogress uwtable
define hidden void @_ZN2dd6solver13push_equationENS0_8eq_stateERNS0_8equationE(ptr noundef nonnull align 8 dereferenceable(208) %this, i32 noundef %st, ptr noundef nonnull align 8 dereferenceable(32) %eq) #4 align 2 {
entry:
  %this.addr = alloca ptr, align 8
  %st.addr = alloca i32, align 4
  %eq.addr = alloca ptr, align 8
  %v = alloca ptr, align 8
  %ref.tmp = alloca ptr, align 8
  store ptr %this, ptr %this.addr, align 8
  store i32 %st, ptr %st.addr, align 4
  store ptr %eq, ptr %eq.addr, align 8
  %this1 = load ptr, ptr %this.addr, align 8
  %0 = load ptr, ptr %eq.addr, align 8
  %1 = load i32, ptr %st.addr, align 4
  call void @_ZN2dd6solver8equation9set_stateENS0_8eq_stateE(ptr noundef nonnull align 8 dereferenceable(32) %0, i32 noundef %1)
  %2 = load ptr, ptr %eq.addr, align 8
  %call = call noundef nonnull align 8 dereferenceable(8) ptr @_ZN2dd6solver9get_queueERKNS0_8equationE(ptr noundef nonnull align 8 dereferenceable(208) %this1, ptr noundef nonnull align 8 dereferenceable(32) %2)
  store ptr %call, ptr %v, align 8
  %3 = load ptr, ptr %eq.addr, align 8
  %4 = load ptr, ptr %v, align 8
  %call2 = call noundef i32 @_ZNK6vectorIPN2dd6solver8equationELb0EjE4sizeEv(ptr noundef nonnull align 8 dereferenceable(8) %4)
  call void @_ZN2dd6solver8equation9set_indexEj(ptr noundef nonnull align 8 dereferenceable(32) %3, i32 noundef %call2)
  %5 = load ptr, ptr %v, align 8
  %6 = load ptr, ptr %eq.addr, align 8
  store ptr %6, ptr %ref.tmp, align 8
  %call3 = call noundef nonnull align 8 dereferenceable(8) ptr @_ZN6vectorIPN2dd6solver8equationELb0EjE9push_backEOS3_(ptr noundef nonnull align 8 dereferenceable(8) %5, ptr noundef nonnull align 8 dereferenceable(8) %ref.tmp)
  ret void
}

; Function Attrs: mustprogress uwtable
define linkonce_odr hidden void @_ZN2dd6solver13push_equationENS0_8eq_stateEPNS0_8equationE(ptr noundef nonnull align 8 dereferenceable(208) %this, i32 noundef %st, ptr noundef %eq) #4 comdat align 2 {
entry:
  %this.addr = alloca ptr, align 8
  %st.addr = alloca i32, align 4
  %eq.addr = alloca ptr, align 8
  store ptr %this, ptr %this.addr, align 8
  store i32 %st, ptr %st.addr, align 4
  store ptr %eq, ptr %eq.addr, align 8
  %this1 = load ptr, ptr %this.addr, align 8
  %0 = load i32, ptr %st.addr, align 4
  %1 = load ptr, ptr %eq.addr, align 8
  call void @_ZN2dd6solver13push_equationENS0_8eq_stateERNS0_8equationE(ptr noundef nonnull align 8 dereferenceable(208) %this1, i32 noundef %0, ptr noundef nonnull align 8 dereferenceable(32) %1)
  ret void
}

; Function Attrs: mustprogress nounwind uwtable
define hidden void @_ZN2dd6solver14scoped_processD2Ev(ptr noundef nonnull align 8 dereferenceable(16) %this) unnamed_addr #5 align 2 personality ptr @__gxx_personality_v0 {
entry:
  %this.addr = alloca ptr, align 8
  store ptr %this, ptr %this.addr, align 8
  %this1 = load ptr, ptr %this.addr, align 8
  %e = getelementptr inbounds %"struct.dd::solver::scoped_process", ptr %this1, i32 0, i32 1
  %0 = load ptr, ptr %e, align 8
  %tobool = icmp ne ptr %0, null
  br i1 %tobool, label %if.then, label %if.end

if.then:                                          ; preds = %entry
  %g = getelementptr inbounds %"struct.dd::solver::scoped_process", ptr %this1, i32 0, i32 0
  %1 = load ptr, ptr %g, align 8
  %e2 = getelementptr inbounds %"struct.dd::solver::scoped_process", ptr %this1, i32 0, i32 1
  %2 = load ptr, ptr %e2, align 8
  invoke void @_ZN2dd6solver13push_equationENS0_8eq_stateEPNS0_8equationE(ptr noundef nonnull align 8 dereferenceable(208) %1, i32 noundef 1, ptr noundef %2)
          to label %invoke.cont unwind label %terminate.lpad

invoke.cont:                                      ; preds = %if.then
  br label %if.end

if.end:                                           ; preds = %invoke.cont, %entry
  ret void

terminate.lpad:                                   ; preds = %if.then
  %3 = landingpad { ptr, i32 }
          catch ptr null
  %4 = extractvalue { ptr, i32 } %3, 0
  call void @__clang_call_terminate(ptr %4) #17
  unreachable
}