; Function Attrs: mustprogress nounwind uwtable
define hidden void @_ZN2dd6solver14scoped_processD2Ev(ptr nocapture noundef nonnull readonly align 8 dereferenceable(16) %this) unnamed_addr #4 align 2 personality ptr @__gxx_personality_v0 {
entry:
  %e = getelementptr inbounds i8, ptr %this, i64 8
  %0 = load ptr, ptr %e, align 8
  %tobool.not = icmp eq ptr %0, null
  br i1 %tobool.not, label %if.end, label %if.then

if.then:                                          ; preds = %entry
  %1 = load ptr, ptr %this, align 8
  store i32 1, ptr %0, align 8
  %m_solved.i.i.i = getelementptr inbounds i8, ptr %1, i64 144
  %2 = load ptr, ptr %m_solved.i.i.i, align 8
  %cmp.i.i.i = icmp eq ptr %2, null
  br i1 %cmp.i.i.i, label %_ZNK6vectorIPN2dd6solver8equationELb0EjE4sizeEv.exit.i.i, label %if.end.i.i.i

if.end.i.i.i:                                     ; preds = %if.then
  %arrayidx.i.i.i = getelementptr inbounds i8, ptr %2, i64 -4
  %3 = load i32, ptr %arrayidx.i.i.i, align 4
  br label %_ZNK6vectorIPN2dd6solver8equationELb0EjE4sizeEv.exit.i.i

_ZNK6vectorIPN2dd6solver8equationELb0EjE4sizeEv.exit.i.i: ; preds = %if.end.i.i.i, %if.then
  %retval.0.i.i.i = phi i32 [ %3, %if.end.i.i.i ], [ 0, %if.then ]
  %m_idx.i.i.i = getelementptr inbounds i8, ptr %0, i64 4
  store i32 %retval.0.i.i.i, ptr %m_idx.i.i.i, align 4
  %4 = load ptr, ptr %m_solved.i.i.i, align 8
  %cmp.i5.i.i = icmp eq ptr %4, null
  br i1 %cmp.i5.i.i, label %if.then.i.i.i, label %lor.lhs.false.i.i.i

lor.lhs.false.i.i.i:                              ; preds = %_ZNK6vectorIPN2dd6solver8equationELb0EjE4sizeEv.exit.i.i
  %arrayidx.i6.i.i = getelementptr inbounds i8, ptr %4, i64 -4
  %5 = load i32, ptr %arrayidx.i6.i.i, align 4
  %arrayidx4.i.i.i = getelementptr inbounds i8, ptr %4, i64 -8
  %6 = load i32, ptr %arrayidx4.i.i.i, align 4
  %cmp5.i.i.i = icmp eq i32 %5, %6
  br i1 %cmp5.i.i.i, label %if.then.i.i.i, label %_ZN2dd6solver13push_equationENS0_8eq_stateEPNS0_8equationE.exit

if.then.i.i.i:                                    ; preds = %lor.lhs.false.i.i.i, %_ZNK6vectorIPN2dd6solver8equationELb0EjE4sizeEv.exit.i.i
  invoke void @_ZN6vectorIPN2dd6solver8equationELb0EjE13expand_vectorEv(ptr noundef nonnull align 8 dereferenceable(8) %m_solved.i.i.i)
          to label %.noexc unwind label %terminate.lpad

.noexc:                                           ; preds = %if.then.i.i.i
  %.pre.i.i.i = load ptr, ptr %m_solved.i.i.i, align 8
  %arrayidx8.phi.trans.insert.i.i.i = getelementptr inbounds i8, ptr %.pre.i.i.i, i64 -4
  %.pre1.i.i.i = load i32, ptr %arrayidx8.phi.trans.insert.i.i.i, align 4
  br label %_ZN2dd6solver13push_equationENS0_8eq_stateEPNS0_8equationE.exit

_ZN2dd6solver13push_equationENS0_8eq_stateEPNS0_8equationE.exit: ; preds = %lor.lhs.false.i.i.i, %.noexc
  %7 = phi i32 [ %.pre1.i.i.i, %.noexc ], [ %5, %lor.lhs.false.i.i.i ]
  %8 = phi ptr [ %.pre.i.i.i, %.noexc ], [ %4, %lor.lhs.false.i.i.i ]
  %idx.ext.i.i.i = zext i32 %7 to i64
  %add.ptr.i.i.i = getelementptr inbounds ptr, ptr %8, i64 %idx.ext.i.i.i
  store ptr %0, ptr %add.ptr.i.i.i, align 8
  %9 = load ptr, ptr %m_solved.i.i.i, align 8
  %arrayidx10.i.i.i = getelementptr inbounds i8, ptr %9, i64 -4
  %10 = load i32, ptr %arrayidx10.i.i.i, align 4
  %inc.i.i.i = add i32 %10, 1
  store i32 %inc.i.i.i, ptr %arrayidx10.i.i.i, align 4
  br label %if.end

if.end:                                           ; preds = %_ZN2dd6solver13push_equationENS0_8eq_stateEPNS0_8equationE.exit, %entry
  ret void

terminate.lpad:                                   ; preds = %if.then.i.i.i
  %11 = landingpad { ptr, i32 }
          catch ptr null
  %12 = extractvalue { ptr, i32 } %11, 0
  tail call void @__clang_call_terminate(ptr %12) #24
  unreachable
}